; Function Attrs: nounwind uwtable
define ptr @l_Lean_Position_instToExpr___lambda__1(ptr noundef %0) #0 {
  %2 = getelementptr inbounds nuw i8, ptr %0, i64 8
  %3 = load ptr, ptr %2, align 8, !tbaa !4
  %4 = ptrtoint ptr %3 to i64
  %5 = and i64 %4, 1
  %.not = icmp eq i64 %5, 0
  br i1 %.not, label %6, label %lean_inc.exit21

6:                                                ; preds = %1
  %.val.i = load i32, ptr %3, align 4, !tbaa !9
  %7 = icmp sgt i32 %.val.i, 0
  br i1 %7, label %8, label %10, !prof !12

8:                                                ; preds = %6
  %9 = add nuw i32 %.val.i, 1
  store i32 %9, ptr %3, align 4, !tbaa !9
  br label %lean_inc.exit21

10:                                               ; preds = %6
  %.not.i24 = icmp eq i32 %.val.i, 0
  br i1 %.not.i24, label %lean_inc.exit21, label %11

11:                                               ; preds = %10
  tail call void @lean_inc_ref_cold(ptr noundef nonnull %3) #6
  br label %lean_inc.exit21

lean_inc.exit21:                                  ; preds = %11, %10, %8, %1
  %12 = tail call ptr @l_Lean_mkNatLit(ptr noundef %3) #6
  %13 = getelementptr inbounds nuw i8, ptr %0, i64 16
  %14 = load ptr, ptr %13, align 8, !tbaa !4
  %15 = ptrtoint ptr %14 to i64
  %16 = and i64 %15, 1
  %.not29 = icmp eq i64 %16, 0
  br i1 %.not29, label %17, label %lean_inc.exit

17:                                               ; preds = %lean_inc.exit21
  %.val.i25 = load i32, ptr %14, align 4, !tbaa !9
  %18 = icmp sgt i32 %.val.i25, 0
  br i1 %18, label %19, label %21, !prof !12

19:                                               ; preds = %17
  %20 = add nuw i32 %.val.i25, 1
  store i32 %20, ptr %14, align 4, !tbaa !9
  br label %lean_inc.exit

21:                                               ; preds = %17
  %.not.i26 = icmp eq i32 %.val.i25, 0
  br i1 %.not.i26, label %lean_inc.exit, label %22

22:                                               ; preds = %21
  tail call void @lean_inc_ref_cold(ptr noundef nonnull %14) #6
  br label %lean_inc.exit

lean_inc.exit:                                    ; preds = %22, %21, %19, %lean_inc.exit21
  %23 = ptrtoint ptr %0 to i64
  %24 = and i64 %23, 1
  %.not30 = icmp eq i64 %24, 0
  br i1 %.not30, label %25, label %lean_dec.exit20

25:                                               ; preds = %lean_inc.exit
  %26 = load i32, ptr %0, align 4, !tbaa !9
  %27 = icmp sgt i32 %26, 1
  br i1 %27, label %28, label %30, !prof !12

28:                                               ; preds = %25
  %29 = add nsw i32 %26, -1
  store i32 %29, ptr %0, align 4, !tbaa !9
  br label %lean_dec.exit20

30:                                               ; preds = %25
  %.not.i = icmp eq i32 %26, 0
  br i1 %.not.i, label %lean_dec.exit20, label %31

31:                                               ; preds = %30
  tail call void @lean_dec_ref_cold(ptr noundef nonnull %0) #6
  br label %lean_dec.exit20

lean_dec.exit20:                                  ; preds = %31, %30, %28, %lean_inc.exit
  %32 = tail call ptr @l_Lean_mkNatLit(ptr noundef %14) #6
  tail call void @lean_inc_heartbeat() #6
  %33 = tail call noalias ptr @mi_malloc_small(i64 noundef 24) #6
  %34 = icmp eq ptr %33, null
  br i1 %34, label %35, label %lean_alloc_ctor.exit

35:                                               ; preds = %lean_dec.exit20
  tail call void @lean_internal_panic_out_of_memory() #7
  unreachable

lean_alloc_ctor.exit:                             ; preds = %lean_dec.exit20
  %36 = getelementptr inbounds nuw i8, ptr %33, i64 4
  store i32 1, ptr %33, align 4, !tbaa !9
  store i32 16908312, ptr %36, align 4
  %37 = getelementptr inbounds nuw i8, ptr %33, i64 8
  store ptr %32, ptr %37, align 8, !tbaa !4
  %38 = getelementptr inbounds nuw i8, ptr %33, i64 16
  store ptr inttoptr (i64 1 to ptr), ptr %38, align 8, !tbaa !4
  tail call void @lean_inc_heartbeat() #6
  %39 = tail call noalias ptr @mi_malloc_small(i64 noundef 24) #6
  %40 = icmp eq ptr %39, null
  br i1 %40, label %41, label %lean_alloc_ctor.exit28

41:                                               ; preds = %lean_alloc_ctor.exit
  tail call void @lean_internal_panic_out_of_memory() #7
  unreachable

lean_alloc_ctor.exit28:                           ; preds = %lean_alloc_ctor.exit
  %42 = getelementptr inbounds nuw i8, ptr %39, i64 4
  store i32 1, ptr %39, align 4, !tbaa !9
  store i32 16908312, ptr %42, align 4
  %43 = getelementptr inbounds nuw i8, ptr %39, i64 8
  store ptr %12, ptr %43, align 8, !tbaa !4
  %44 = getelementptr inbounds nuw i8, ptr %39, i64 16
  store ptr %33, ptr %44, align 8, !tbaa !4
  %45 = tail call ptr @lean_array_mk(ptr noundef nonnull %39) #6
  %46 = load ptr, ptr @l_Lean_Position_instToExpr___lambda__1___closed__3, align 8, !tbaa !4
  %47 = tail call ptr @l_Lean_mkAppN(ptr noundef %46, ptr noundef %45) #6
  %48 = ptrtoint ptr %45 to i64
  %49 = and i64 %48, 1
  %.not31 = icmp eq i64 %49, 0
  br i1 %.not31, label %50, label %lean_dec.exit

50:                                               ; preds = %lean_alloc_ctor.exit28
  %51 = load i32, ptr %45, align 4, !tbaa !9
  %52 = icmp sgt i32 %51, 1
  br i1 %52, label %53, label %55, !prof !12

53:                                               ; preds = %50
  %54 = add nsw i32 %51, -1
  store i32 %54, ptr %45, align 4, !tbaa !9
  br label %lean_dec.exit

55:                                               ; preds = %50
  %.not.i22 = icmp eq i32 %51, 0
  br i1 %.not.i22, label %lean_dec.exit, label %56

56:                                               ; preds = %55
  tail call void @lean_dec_ref_cold(ptr noundef nonnull %45) #6
  br label %lean_dec.exit

lean_dec.exit:                                    ; preds = %56, %55, %53, %lean_alloc_ctor.exit28
  ret ptr %47
}